; Function Attrs: nounwind uwtable
define ptr @l_Std_Time_Internal_Bounded_LE_ofInt(ptr noundef %0, ptr noundef %1, ptr noundef %2) local_unnamed_addr #1 {
  %4 = ptrtoint ptr %0 to i64
  %5 = and i64 %4, 1
  %.not.i.i = icmp eq i64 %5, 0
  br i1 %.not.i.i, label %lean_int_dec_le.exit, label %6, !prof !10

6:                                                ; preds = %3
  %7 = ptrtoint ptr %2 to i64
  %8 = and i64 %7, 1
  %.not7.i.i = icmp eq i64 %8, 0
  br i1 %.not7.i.i, label %lean_int_dec_le.exit, label %9, !prof !10

9:                                                ; preds = %6
  %10 = lshr i64 %4, 1
  %11 = trunc i64 %10 to i32
  %12 = lshr i64 %7, 1
  %13 = trunc i64 %12 to i32
  %.not25 = icmp sgt i32 %11, %13
  br i1 %.not25, label %15, label %25

lean_int_dec_le.exit:                             ; preds = %3, %6
  %14 = tail call zeroext i1 @lean_int_big_le(ptr noundef %0, ptr noundef %2) #5
  br i1 %14, label %25, label %15

15:                                               ; preds = %9, %lean_int_dec_le.exit
  %16 = ptrtoint ptr %2 to i64
  %17 = and i64 %16, 1
  %.not23 = icmp eq i64 %17, 0
  br i1 %.not23, label %18, label %lean_dec.exit13

18:                                               ; preds = %15
  %19 = load i32, ptr %2, align 4, !tbaa !4
  %20 = icmp sgt i32 %19, 1
  br i1 %20, label %21, label %23, !prof !9

21:                                               ; preds = %18
  %22 = add nsw i32 %19, -1
  store i32 %22, ptr %2, align 4, !tbaa !4
  br label %lean_dec.exit13

23:                                               ; preds = %18
  %.not.i = icmp eq i32 %19, 0
  br i1 %.not.i, label %lean_dec.exit13, label %24

24:                                               ; preds = %23
  tail call void @lean_dec_ref_cold(ptr noundef nonnull %2) #5
  br label %lean_dec.exit13

25:                                               ; preds = %9, %lean_int_dec_le.exit
  %26 = ptrtoint ptr %2 to i64
  %27 = and i64 %26, 1
  %.not.i.i16 = icmp eq i64 %27, 0
  br i1 %.not.i.i16, label %lean_int_dec_le.exit20, label %28, !prof !10

28:                                               ; preds = %25
  %29 = ptrtoint ptr %1 to i64
  %30 = and i64 %29, 1
  %.not7.i.i17 = icmp eq i64 %30, 0
  br i1 %.not7.i.i17, label %lean_int_dec_le.exit20.thread24, label %lean_int_dec_le.exit20.thread, !prof !10

lean_int_dec_le.exit20:                           ; preds = %25
  %31 = tail call zeroext i1 @lean_int_big_le(ptr noundef %2, ptr noundef %1) #5
  br i1 %31, label %44, label %37

lean_int_dec_le.exit20.thread24:                  ; preds = %28
  %32 = tail call zeroext i1 @lean_int_big_le(ptr noundef %2, ptr noundef %1) #5
  br i1 %32, label %44, label %lean_dec.exit13

lean_int_dec_le.exit20.thread:                    ; preds = %28
  %33 = lshr i64 %26, 1
  %34 = trunc i64 %33 to i32
  %35 = lshr i64 %29, 1
  %36 = trunc i64 %35 to i32
  %.not = icmp sgt i32 %34, %36
  br i1 %.not, label %lean_dec.exit13, label %44

37:                                               ; preds = %lean_int_dec_le.exit20
  %38 = load i32, ptr %2, align 4, !tbaa !4
  %39 = icmp sgt i32 %38, 1
  br i1 %39, label %40, label %42, !prof !9

40:                                               ; preds = %37
  %41 = add nsw i32 %38, -1
  store i32 %41, ptr %2, align 4, !tbaa !4
  br label %lean_dec.exit13

42:                                               ; preds = %37
  %.not.i14 = icmp eq i32 %38, 0
  br i1 %.not.i14, label %lean_dec.exit13, label %43

43:                                               ; preds = %42
  tail call void @lean_dec_ref_cold(ptr noundef nonnull %2) #5
  br label %lean_dec.exit13

44:                                               ; preds = %lean_int_dec_le.exit20.thread24, %lean_int_dec_le.exit20.thread, %lean_int_dec_le.exit20
  tail call void @lean_inc_heartbeat() #5
  %45 = tail call noalias ptr @mi_malloc_small(i64 noundef 16) #5
  %46 = icmp eq ptr %45, null
  br i1 %46, label %47, label %lean_alloc_ctor.exit

47:                                               ; preds = %44
  tail call void @lean_internal_panic_out_of_memory() #6
  unreachable

lean_alloc_ctor.exit:                             ; preds = %44
  %48 = getelementptr inbounds nuw i8, ptr %45, i64 4
  store i32 1, ptr %45, align 4, !tbaa !4
  store i32 16842768, ptr %48, align 4
  %49 = getelementptr inbounds nuw i8, ptr %45, i64 8
  store ptr %2, ptr %49, align 8, !tbaa !12
  br label %lean_dec.exit13

lean_dec.exit13:                                  ; preds = %lean_int_dec_le.exit20.thread24, %lean_int_dec_le.exit20.thread, %40, %42, %43, %15, %21, %23, %24, %lean_alloc_ctor.exit
  %.0 = phi ptr [ %45, %lean_alloc_ctor.exit ], [ inttoptr (i64 1 to ptr), %24 ], [ inttoptr (i64 1 to ptr), %23 ], [ inttoptr (i64 1 to ptr), %21 ], [ inttoptr (i64 1 to ptr), %15 ], [ inttoptr (i64 1 to ptr), %43 ], [ inttoptr (i64 1 to ptr), %42 ], [ inttoptr (i64 1 to ptr), %40 ], [ inttoptr (i64 1 to ptr), %lean_int_dec_le.exit20.thread ], [ inttoptr (i64 1 to ptr), %lean_int_dec_le.exit20.thread24 ]
  ret ptr %.0
}